	.file	"uart.c"
__SP_H__ = 0x3e
__SP_L__ = 0x3d
__SREG__ = 0x3f
__tmp_reg__ = 0
__zero_reg__ = 1
	.text
.Ltext0:
	.cfi_sections	.debug_frame
.global	__vector_11
	.type	__vector_11, @function
__vector_11:
.LFB1:
	.file 1 "uart.c"
	.loc 1 367 0
	.cfi_startproc
	push r1
.LCFI0:
	.cfi_def_cfa_offset 3
	.cfi_offset 1, -2
	push r0
.LCFI1:
	.cfi_def_cfa_offset 4
	.cfi_offset 0, -3
	in r0,__SREG__
	push r0
	clr __zero_reg__
	push r18
.LCFI2:
	.cfi_def_cfa_offset 5
	.cfi_offset 18, -4
	push r24
.LCFI3:
	.cfi_def_cfa_offset 6
	.cfi_offset 24, -5
	push r25
.LCFI4:
	.cfi_def_cfa_offset 7
	.cfi_offset 25, -6
	push r30
.LCFI5:
	.cfi_def_cfa_offset 8
	.cfi_offset 30, -7
	push r31
.LCFI6:
	.cfi_def_cfa_offset 9
	.cfi_offset 31, -8
/* prologue: Signal */
/* frame size = 0 */
/* stack size = 8 */
.L__stack_usage = 8
	.loc 1 375 0
	in r24,0xb
.LVL0:
	.loc 1 376 0
	in r25,0xc
.LVL1:
	.loc 1 386 0
	andi r24,lo8(24)
.LVL2:
	.loc 1 390 0
	lds r30,UART_RxHead
	subi r30,lo8(-(1))
	andi r30,lo8(31)
.LVL3:
	.loc 1 392 0
	lds r18,UART_RxTail
	cp r30,r18
	breq .L3
	.loc 1 397 0
	sts UART_RxHead,r30
	.loc 1 399 0
	ldi r31,0
	subi r30,lo8(-(UART_RxBuf))
	sbci r31,hi8(-(UART_RxBuf))
.LVL4:
	st Z,r25
.LVL5:
	rjmp .L2
.LVL6:
.L3:
	.loc 1 394 0
	ldi r24,lo8(2)
.LVL7:
.L2:
	.loc 1 401 0
	lds r25,UART_LastRxError
.LVL8:
	or r24,r25
.LVL9:
	sts UART_LastRxError,r24
/* epilogue start */
	.loc 1 402 0
	pop r31
	pop r30
	pop r25
	pop r24
	pop r18
	pop r0
	out __SREG__,r0
	pop r0
	pop r1
	reti
	.cfi_endproc
.LFE1:
	.size	__vector_11, .-__vector_11
.global	__vector_12
	.type	__vector_12, @function
__vector_12:
.LFB2:
	.loc 1 410 0
	.cfi_startproc
	push r1
.LCFI7:
	.cfi_def_cfa_offset 3
	.cfi_offset 1, -2
	push r0
.LCFI8:
	.cfi_def_cfa_offset 4
	.cfi_offset 0, -3
	in r0,__SREG__
	push r0
	clr __zero_reg__
	push r24
.LCFI9:
	.cfi_def_cfa_offset 5
	.cfi_offset 24, -4
	push r25
.LCFI10:
	.cfi_def_cfa_offset 6
	.cfi_offset 25, -5
	push r30
.LCFI11:
	.cfi_def_cfa_offset 7
	.cfi_offset 30, -6
	push r31
.LCFI12:
	.cfi_def_cfa_offset 8
	.cfi_offset 31, -7
/* prologue: Signal */
/* frame size = 0 */
/* stack size = 7 */
.L__stack_usage = 7
	.loc 1 414 0
	lds r25,UART_TxHead
	lds r24,UART_TxTail
	cp r25,r24
	breq .L6
	.loc 1 416 0
	lds r30,UART_TxTail
	subi r30,lo8(-(1))
	andi r30,lo8(31)
.LVL10:
	.loc 1 417 0
	sts UART_TxTail,r30
	.loc 1 419 0
	ldi r31,0
	subi r30,lo8(-(UART_TxBuf))
	sbci r31,hi8(-(UART_TxBuf))
.LVL11:
	ld r24,Z
	out 0xc,r24
.LVL12:
	rjmp .L5
.L6:
	.loc 1 422 0
	cbi 0xa,5
.L5:
/* epilogue start */
	.loc 1 424 0
	pop r31
	pop r30
	pop r25
	pop r24
	pop r0
	out __SREG__,r0
	pop r0
	pop r1
	reti
	.cfi_endproc
.LFE2:
	.size	__vector_12, .-__vector_12
.global	uart_init
	.type	uart_init, @function
uart_init:
.LFB3:
	.loc 1 434 0
	.cfi_startproc
.LVL13:
/* prologue: function */
/* frame size = 0 */
/* stack size = 0 */
.L__stack_usage = 0
	.loc 1 435 0
	sts UART_TxHead,__zero_reg__
	.loc 1 436 0
	sts UART_TxTail,__zero_reg__
	.loc 1 437 0
	sts UART_RxHead,__zero_reg__
	.loc 1 438 0
	sts UART_RxTail,__zero_reg__
	.loc 1 458 0
	sbrs r25,7
	rjmp .L9
	.loc 1 461 0
	ldi r18,lo8(2)
	out 0xb,r18
.L9:
	.loc 1 465 0
	andi r25,lo8(-128)
	out 0x20,r25
	.loc 1 467 0
	out 0x9,r24
	.loc 1 470 0
	ldi r24,lo8(-104)
.LVL14:
	out 0xa,r24
	.loc 1 475 0
	ldi r24,lo8(-122)
	out 0x20,r24
	ret
	.cfi_endproc
.LFE3:
	.size	uart_init, .-uart_init
.global	uart_getc
	.type	uart_getc, @function
uart_getc:
.LFB4:
	.loc 1 491 0
	.cfi_startproc
/* prologue: function */
/* frame size = 0 */
/* stack size = 0 */
.L__stack_usage = 0
	.loc 1 497 0
	lds r25,UART_RxHead
	lds r24,UART_RxTail
	cp r25,r24
	breq .L12
	.loc 1 502 0
	lds r25,UART_RxTail
	subi r25,lo8(-(1))
	andi r25,lo8(31)
.LVL15:
	.loc 1 505 0
	mov r30,r25
	ldi r31,0
	subi r30,lo8(-(UART_RxBuf))
	sbci r31,hi8(-(UART_RxBuf))
	ld r18,Z
.LVL16:
	.loc 1 506 0
	lds r24,UART_LastRxError
.LVL17:
	.loc 1 509 0
	sts UART_RxTail,r25
	.loc 1 511 0
	sts UART_LastRxError,__zero_reg__
	.loc 1 512 0
	ldi r25,0
.LVL18:
	mov r25,r24
	clr r24
.LVL19:
	add r24,r18
	adc r25,__zero_reg__
	ret
.LVL20:
.L12:
	.loc 1 498 0
	ldi r24,0
	ldi r25,lo8(1)
	.loc 1 514 0
	ret
	.cfi_endproc
.LFE4:
	.size	uart_getc, .-uart_getc
.global	uart_putc
	.type	uart_putc, @function
uart_putc:
.LFB5:
	.loc 1 524 0
	.cfi_startproc
.LVL21:
/* prologue: function */
/* frame size = 0 */
/* stack size = 0 */
.L__stack_usage = 0
	.loc 1 528 0
	lds r25,UART_TxHead
	subi r25,lo8(-(1))
	andi r25,lo8(31)
.LVL22:
.L14:
	.loc 1 530 0 discriminator 1
	lds r18,UART_TxTail
	cp r25,r18
	breq .L14
	.loc 1 534 0
	mov r30,r25
	ldi r31,0
	subi r30,lo8(-(UART_TxBuf))
	sbci r31,hi8(-(UART_TxBuf))
	st Z,r24
	.loc 1 535 0
	sts UART_TxHead,r25
	.loc 1 538 0
	sbi 0xa,5
	ret
	.cfi_endproc
.LFE5:
	.size	uart_putc, .-uart_putc
.global	uart_puts
	.type	uart_puts, @function
uart_puts:
.LFB6:
	.loc 1 550 0
	.cfi_startproc
.LVL23:
	push r28
.LCFI13:
	.cfi_def_cfa_offset 3
	.cfi_offset 28, -2
	push r29
.LCFI14:
	.cfi_def_cfa_offset 4
	.cfi_offset 29, -3
/* prologue: function */
/* frame size = 0 */
/* stack size = 2 */
.L__stack_usage = 2
	movw r28,r24
.LVL24:
.L17:
	.loc 1 551 0
	ld r24,Y+
.LVL25:
	tst r24
	breq .L19
.LVL26:
	.loc 1 552 0
	rcall uart_putc
.LVL27:
	rjmp .L17
.LVL28:
.L19:
/* epilogue start */
	.loc 1 554 0
	pop r29
	pop r28
.LVL29:
	ret
	.cfi_endproc
.LFE6:
	.size	uart_puts, .-uart_puts
.global	uart_puts_p
	.type	uart_puts_p, @function
uart_puts_p:
.LFB7:
	.loc 1 564 0
	.cfi_startproc
.LVL30:
	push r28
.LCFI15:
	.cfi_def_cfa_offset 3
	.cfi_offset 28, -2
	push r29
.LCFI16:
	.cfi_def_cfa_offset 4
	.cfi_offset 29, -3
/* prologue: function */
/* frame size = 0 */
/* stack size = 2 */
.L__stack_usage = 2
	movw r30,r24
.LVL31:
.L21:
.LBB2:
	.loc 1 567 0
/* #APP */
 ;  567 "uart.c" 1
	lpm r24, Z
	
 ;  0 "" 2
.LVL32:
/* #NOAPP */
	movw r28,r30
	adiw r28,1
.LVL33:
.LBE2:
	.loc 1 567 0
	tst r24
	breq .L23
	.loc 1 568 0
	rcall uart_putc
.LVL34:
	movw r30,r28
	rjmp .L21
.LVL35:
.L23:
/* epilogue start */
	.loc 1 570 0
	pop r29
	pop r28
.LVL36:
	ret
	.cfi_endproc
.LFE7:
	.size	uart_puts_p, .-uart_puts_p
	.local	UART_LastRxError
	.comm	UART_LastRxError,1,1
	.local	UART_RxTail
	.comm	UART_RxTail,1,1
	.local	UART_RxHead
	.comm	UART_RxHead,1,1
	.local	UART_TxTail
	.comm	UART_TxTail,1,1
	.local	UART_TxHead
	.comm	UART_TxHead,1,1
	.local	UART_RxBuf
	.comm	UART_RxBuf,32,1
	.local	UART_TxBuf
	.comm	UART_TxBuf,32,1
.Letext0:
	.file 2 "/usr/avr/include/stdint.h"